target datalayout = "e-m:e-p270:32:32-p271:32:32-p272:64:64-i64:64-i128:128-f80:128-n8:16:32:64-S128"
target triple = "x86_64-pc-linux-gnu"

%struct.list = type { ptr, ptr, ptr, ptr, ptr, i64 }
%struct.listNode = type { ptr, ptr, ptr }

; Function Attrs: nounwind uwtable
define dso_local ptr @clusterShardNodeFirst(ptr noundef %0) #0 {
  %2 = alloca ptr, align 8
  %3 = alloca ptr, align 8
  %4 = alloca ptr, align 8
  %5 = alloca i32, align 4
  store ptr %0, ptr %3, align 8, !tbaa !47
  call void @llvm.lifetime.start.p0(i64 8, ptr %4) #16
  %6 = load ptr, ptr %3, align 8, !tbaa !47
  %7 = getelementptr inbounds nuw %struct.list, ptr %6, i32 0, i32 0
  %8 = load ptr, ptr %7, align 8, !tbaa !279
  store ptr %8, ptr %4, align 8, !tbaa !200
  %9 = load ptr, ptr %4, align 8, !tbaa !200
  %10 = icmp eq ptr %9, null
  br i1 %10, label %11, label %12

11:                                               ; preds = %1
  store ptr null, ptr %2, align 8
  store i32 1, ptr %5, align 4
  br label %16

12:                                               ; preds = %1
  %13 = load ptr, ptr %4, align 8, !tbaa !200
  %14 = getelementptr inbounds nuw %struct.listNode, ptr %13, i32 0, i32 2
  %15 = load ptr, ptr %14, align 8, !tbaa !201
  store ptr %15, ptr %2, align 8
  store i32 1, ptr %5, align 4
  br label %16

16:                                               ; preds = %12, %11
  call void @llvm.lifetime.end.p0(i64 8, ptr %4) #16
  %17 = load ptr, ptr %2, align 8
  ret ptr %17
}